ARM Linker, 5.01 [Build 43] 

==============================================================================

Image Symbol Table

    Local Symbols

    Symbol Name                              Value     Ov Type        Size  Object(Section)

    ../clib/angel/rt.s                       0x00000000   Number         0  rt_locale.o ABSOLUTE
    ../clib/angel/rt.s                       0x00000000   Number         0  rt_locale_intlibspace.o ABSOLUTE
    ../clib/angel/rt.s                       0x00000000   Number         0  rt_ctype_table.o ABSOLUTE
    ../clib/angel/rt.s                       0x00000000   Number         0  rt_raise.o ABSOLUTE
    ../clib/angel/rt.s                       0x00000000   Number         0  rt_div0.o ABSOLUTE
    ../clib/angel/rt.s                       0x00000000   Number         0  aeabi_idiv0.o ABSOLUTE
    ../clib/angel/rt.s                       0x00000000   Number         0  aeabi_idiv0_sigfpe.o ABSOLUTE
    ../clib/angel/rt.s                       0x00000000   Number         0  aeabi_ldiv0.o ABSOLUTE
    ../clib/angel/rt.s                       0x00000000   Number         0  aeabi_ldiv0_sigfpe.o ABSOLUTE
    ../clib/angel/sys.s                      0x00000000   Number         0  indicate_semi.o ABSOLUTE
    ../clib/angel/sys.s                      0x00000000   Number         0  use_no_semi.o ABSOLUTE
    ../clib/angel/sys.s                      0x00000000   Number         0  libspace.o ABSOLUTE
    ../clib/angel/sysapp.c                   0x00000000   Number         0  sys_command.o ABSOLUTE
    ../clib/angel/sysapp.c                   0x00000000   Number         0  sys_wrch.o ABSOLUTE
    ../clib/angel/sysapp.c                   0x00000000   Number         0  sys_exit.o ABSOLUTE
    ../clib/armsys.c                         0x00000000   Number         0  no_argv.o ABSOLUTE
    ../clib/armsys.c                         0x00000000   Number         0  _get_argv_nomalloc.o ABSOLUTE
    ../clib/armsys.c                         0x00000000   Number         0  argv_veneer.o ABSOLUTE
    ../clib/armsys.c                         0x00000000   Number         0  argv_veneer.o ABSOLUTE
    ../clib/bigflt.c                         0x00000000   Number         0  bigflt0.o ABSOLUTE
    ../clib/btod.s                           0x00000000   Number         0  btod.o ABSOLUTE
    ../clib/division.s                       0x00000000   Number         0  aeabi_sdiv_rt_div0_v7de_otime.o ABSOLUTE
    ../clib/division.s                       0x00000000   Number         0  aeabi_sdiv_rt_v7de_otime.o ABSOLUTE
    ../clib/division.s                       0x00000000   Number         0  aeabi_sdiv_div0_v7de_otime.o ABSOLUTE
    ../clib/division.s                       0x00000000   Number         0  aeabi_sdiv_v7de_otime.o ABSOLUTE
    ../clib/division.s                       0x00000000   Number         0  rtudiv10.o ABSOLUTE
    ../clib/heapalloc.c                      0x00000000   Number         0  hrguard.o ABSOLUTE
    ../clib/libinit.s                        0x00000000   Number         0  libinit2.o ABSOLUTE
    ../clib/locale.c                         0x00000000   Number         0  _wcrtomb.o ABSOLUTE
    ../clib/locale.c                         0x00000000   Number         0  locale_r.o ABSOLUTE
    ../clib/locale.c                         0x00000000   Number         0  locale.o ABSOLUTE
    ../clib/locale.s                         0x00000000   Number         0  lc_numeric_c.o ABSOLUTE
    ../clib/locale.s                         0x00000000   Number         0  null_locale.o ABSOLUTE
    ../clib/locale.s                         0x00000000   Number         0  lc_ctype_c.o ABSOLUTE
    ../clib/longlong.s                       0x00000000   Number         0  lludiv10.o ABSOLUTE
    ../clib/longlong.s                       0x00000000   Number         0  lludiv5.o ABSOLUTE
    ../clib/memcpset.s                       0x00000000   Number         0  strcmpv7.o ABSOLUTE
    ../clib/memcpset.s                       0x00000000   Number         0  rt_memclr_w.o ABSOLUTE
    ../clib/memcpset.s                       0x00000000   Number         0  rt_memclr.o ABSOLUTE
    ../clib/memcpset.s                       0x00000000   Number         0  rt_memcpy_w.o ABSOLUTE
    ../clib/misc.s                           0x00000000   Number         0  printf_stubs.o ABSOLUTE
    ../clib/printf.c                         0x00000000   Number         0  noretval__2snprintf.o ABSOLUTE
    ../clib/printf.c                         0x00000000   Number         0  __printf_flags_wp.o ABSOLUTE
    ../clib/printf.c                         0x00000000   Number         0  __printf_ss_wp.o ABSOLUTE
    ../clib/printf.c                         0x00000000   Number         0  __printf_flags_ss_wp.o ABSOLUTE
    ../clib/printf.c                         0x00000000   Number         0  _printf_fp_dec.o ABSOLUTE
    ../clib/printf.c                         0x00000000   Number         0  _printf_pad.o ABSOLUTE
    ../clib/printf.c                         0x00000000   Number         0  _printf_oct_int.o ABSOLUTE
    ../clib/printf.c                         0x00000000   Number         0  _printf_truncate.o ABSOLUTE
    ../clib/printf.c                         0x00000000   Number         0  _printf_str.o ABSOLUTE
    ../clib/printf.c                         0x00000000   Number         0  _printf_intcommon.o ABSOLUTE
    ../clib/printf.c                         0x00000000   Number         0  _printf_charcount.o ABSOLUTE
    ../clib/printf.c                         0x00000000   Number         0  _printf_char_common.o ABSOLUTE
    ../clib/printf.c                         0x00000000   Number         0  _printf_hex_int_ll_ptr.o ABSOLUTE
    ../clib/printf.c                         0x00000000   Number         0  _printf_hex_ll_ptr.o ABSOLUTE
    ../clib/printf.c                         0x00000000   Number         0  _sputc.o ABSOLUTE
    ../clib/printf.c                         0x00000000   Number         0  _printf_hex_int_ptr.o ABSOLUTE
    ../clib/printf.c                         0x00000000   Number         0  _snputc.o ABSOLUTE
    ../clib/printf.c                         0x00000000   Number         0  _printf_hex_ptr.o ABSOLUTE
    ../clib/printf.c                         0x00000000   Number         0  _printf_wctomb.o ABSOLUTE
    ../clib/printf.c                         0x00000000   Number         0  _printf_hex_int_ll.o ABSOLUTE
    ../clib/printf.c                         0x00000000   Number         0  _printf_hex_int.o ABSOLUTE
    ../clib/printf.c                         0x00000000   Number         0  _printf_hex_ll.o ABSOLUTE
    ../clib/printf.c                         0x00000000   Number         0  _printf_longlong_dec.o ABSOLUTE
    ../clib/printf.c                         0x00000000   Number         0  _printf_oct_int_ll.o ABSOLUTE
    ../clib/printf.c                         0x00000000   Number         0  _printf_oct_ll.o ABSOLUTE
    ../clib/printf.c                         0x00000000   Number         0  _printf_fp_infnan.o ABSOLUTE
    ../clib/printf.c                         0x00000000   Number         0  c89vsnprintf.o ABSOLUTE
    ../clib/printf.c                         0x00000000   Number         0  __2sprintf.o ABSOLUTE
    ../clib/printf.c                         0x00000000   Number         0  _printf_wchar.o ABSOLUTE
    ../clib/printf.c                         0x00000000   Number         0  __2snprintf.o ABSOLUTE
    ../clib/printf.c                         0x00000000   Number         0  _printf_char.o ABSOLUTE
    ../clib/printf.c                         0x00000000   Number         0  noretval__2sprintf.o ABSOLUTE
    ../clib/printf.c                         0x00000000   Number         0  __printf_nopercent.o ABSOLUTE
    ../clib/printf.c                         0x00000000   Number         0  __printf.o ABSOLUTE
    ../clib/printf.c                         0x00000000   Number         0  _printf_dec.o ABSOLUTE
    ../clib/printf.c                         0x00000000   Number         0  __printf_flags.o ABSOLUTE
    ../clib/printf.c                         0x00000000   Number         0  __printf_ss.o ABSOLUTE
    ../clib/printf.c                         0x00000000   Number         0  __printf_flags_ss.o ABSOLUTE
    ../clib/printf.c                         0x00000000   Number         0  __printf_wp.o ABSOLUTE
    ../clib/printf_percent.s                 0x00000000   Number         0  _printf_u.o ABSOLUTE
    ../clib/printf_percent.s                 0x00000000   Number         0  _printf_e.o ABSOLUTE
    ../clib/printf_percent.s                 0x00000000   Number         0  _printf_i.o ABSOLUTE
    ../clib/printf_percent.s                 0x00000000   Number         0  _printf_o.o ABSOLUTE
    ../clib/printf_percent.s                 0x00000000   Number         0  _printf_p.o ABSOLUTE
    ../clib/printf_percent.s                 0x00000000   Number         0  _printf_f.o ABSOLUTE
    ../clib/printf_percent.s                 0x00000000   Number         0  _printf_ll.o ABSOLUTE
    ../clib/printf_percent.s                 0x00000000   Number         0  _printf_lc.o ABSOLUTE
    ../clib/printf_percent.s                 0x00000000   Number         0  _printf_l.o ABSOLUTE
    ../clib/printf_percent.s                 0x00000000   Number         0  _printf_llu.o ABSOLUTE
    ../clib/printf_percent.s                 0x00000000   Number         0  _printf_lld.o ABSOLUTE
    ../clib/printf_percent.s                 0x00000000   Number         0  _printf_lli.o ABSOLUTE
    ../clib/printf_percent.s                 0x00000000   Number         0  _printf_s.o ABSOLUTE
    ../clib/printf_percent.s                 0x00000000   Number         0  _printf_c.o ABSOLUTE
    ../clib/printf_percent.s                 0x00000000   Number         0  _printf_d.o ABSOLUTE
    ../clib/printf_percent.s                 0x00000000   Number         0  _printf_n.o ABSOLUTE
    ../clib/printf_percent.s                 0x00000000   Number         0  _printf_percent.o ABSOLUTE
    ../clib/printf_percent.s                 0x00000000   Number         0  _printf_percent_end.o ABSOLUTE
    ../clib/printf_percent.s                 0x00000000   Number         0  _printf_x.o ABSOLUTE
    ../clib/printf_percent.s                 0x00000000   Number         0  _printf_ls.o ABSOLUTE
    ../clib/printf_percent.s                 0x00000000   Number         0  _printf_a.o ABSOLUTE
    ../clib/printf_percent.s                 0x00000000   Number         0  _printf_llx.o ABSOLUTE
    ../clib/printf_percent.s                 0x00000000   Number         0  _printf_g.o ABSOLUTE
    ../clib/printf_percent.s                 0x00000000   Number         0  _printf_llo.o ABSOLUTE
    ../clib/signal.c                         0x00000000   Number         0  defsig_fpe_inner.o ABSOLUTE
    ../clib/signal.c                         0x00000000   Number         0  defsig_general.o ABSOLUTE
    ../clib/signal.c                         0x00000000   Number         0  defsig_fpe_formal.o ABSOLUTE
    ../clib/signal.c                         0x00000000   Number         0  defsig_fpe_outer.o ABSOLUTE
    ../clib/signal.c                         0x00000000   Number         0  defsig_other.o ABSOLUTE
    ../clib/signal.c                         0x00000000   Number         0  defsig_abrt_inner.o ABSOLUTE
    ../clib/signal.c                         0x00000000   Number         0  defsig_rtred_inner.o ABSOLUTE
    ../clib/signal.c                         0x00000000   Number         0  defsig_rtmem_inner.o ABSOLUTE
    ../clib/signal.c                         0x00000000   Number         0  defsig_rtmem_formal.o ABSOLUTE
    ../clib/signal.c                         0x00000000   Number         0  defsig_rtmem_outer.o ABSOLUTE
    ../clib/signal.c                         0x00000000   Number         0  defsig_pvfn_inner.o ABSOLUTE
    ../clib/signal.c                         0x00000000   Number         0  defsig_cppl_inner.o ABSOLUTE
    ../clib/signal.c                         0x00000000   Number         0  defsig_exit.o ABSOLUTE
    ../clib/signal.c                         0x00000000   Number         0  __raise.o ABSOLUTE
    ../clib/signal.c                         0x00000000   Number         0  defsig_segv_inner.o ABSOLUTE
    ../clib/signal.c                         0x00000000   Number         0  defsig_stak_inner.o ABSOLUTE
    ../clib/signal.s                         0x00000000   Number         0  defsig.o ABSOLUTE
    ../clib/string.c                         0x00000000   Number         0  strlcpy.o ABSOLUTE
    ../clib/string.c                         0x00000000   Number         0  strcpy.o ABSOLUTE
    ../clib/string.c                         0x00000000   Number         0  strncmp.o ABSOLUTE
    ../clib/string.c                         0x00000000   Number         0  strlen.o ABSOLUTE
    ../fplib/dfix.s                          0x00000000   Number         0  dfix.o ABSOLUTE
    ../fplib/dmul.s                          0x00000000   Number         0  dmul.o ABSOLUTE
    ../fplib/ffix.s                          0x00000000   Number         0  ffix.o ABSOLUTE
    ../fplib/fmul.s                          0x00000000   Number         0  fmul.o ABSOLUTE
    ../fplib/fpinit.s                        0x00000000   Number         0  fpinit.o ABSOLUTE
    ../fplib/istatus.s                       0x00000000   Number         0  istatus.o ABSOLUTE
    ../fplib/printf1.s                       0x00000000   Number         0  printf1.o ABSOLUTE
    ../fplib/usenofp.s                       0x00000000   Number         0  usenofp.o ABSOLUTE
    ../mathlib/fpclassify.c                  0x00000000   Number         0  fpclassify.o ABSOLUTE
    ./src/app/src/atel_bg96_app.c            0x00000000   Number         0  atel_bg96_app.o ABSOLUTE
    ./src/modules_depend/src/atel_gpio.c     0x00000000   Number         0  atel_gpio.o ABSOLUTE
    ./src/modules_depend/src/atel_gps.c      0x00000000   Number         0  atel_gps.o ABSOLUTE
    ./src/modules_depend/src/atel_tcpclient.c 0x00000000   Number         0  atel_tcpclient.o ABSOLUTE
    ./src/utils/source/quectel_uart_apis.c   0x00000000   Number         0  quectel_uart_apis.o ABSOLUTE
    ./src/utils/source/quectel_utils.c       0x00000000   Number         0  quectel_utils.o ABSOLUTE
    .\src\txm_module_preamble.S              0x00000000   Number         0  txm_module_preamble.o ABSOLUTE
    Z:\b\apps_proc\core\kernel\rtos\threadx\txm_module_lib\src\txm_module_callback_request_thread_entry.c 0x00000000   Number         0  txm_module_callback_request_thread_entry.o ABSOLUTE
    Z:\b\apps_proc\core\kernel\rtos\threadx\txm_module_lib\src\txm_module_system_call11.c 0x00000000   Number         0  txm_module_system_call11.o ABSOLUTE
    Z:\b\apps_proc\core\kernel\rtos\threadx\txm_module_lib\src\txm_module_system_call12.c 0x00000000   Number         0  txm_module_system_call12.o ABSOLUTE
    Z:\b\apps_proc\core\kernel\rtos\threadx\txm_module_lib\src\txm_module_system_call4.c 0x00000000   Number         0  txm_module_system_call4.o ABSOLUTE
    Z:\b\apps_proc\core\kernel\rtos\threadx\txm_module_lib\src\txm_module_system_call5.c 0x00000000   Number         0  txm_module_system_call5.o ABSOLUTE
    Z:\b\apps_proc\core\kernel\rtos\threadx\txm_module_lib\src\txm_module_thread_shell_entry.c 0x00000000   Number         0  txm_module_thread_shell_entry.o ABSOLUTE
    Z:\b\apps_proc\core\services\time_qapi\src\qapi_timer_user.c 0x00000000   Number         0  qapi_timer_user.o ABSOLUTE
    dc.s                                     0x00000000   Number         0  dc.o ABSOLUTE
    Init                                     0x40000000   Section      128  txm_module_preamble.o(Init)
    .ARM.Collect$$_printf_percent$$00000000  0x40000080   Section        0  _printf_percent.o(.ARM.Collect$$_printf_percent$$00000000)
    .ARM.Collect$$_printf_percent$$00000001  0x40000080   Section        8  _printf_n.o(.ARM.Collect$$_printf_percent$$00000001)
    .ARM.Collect$$_printf_percent$$00000002  0x40000088   Section        8  _printf_p.o(.ARM.Collect$$_printf_percent$$00000002)
    .ARM.Collect$$_printf_percent$$00000003  0x40000090   Section        8  _printf_f.o(.ARM.Collect$$_printf_percent$$00000003)
    .ARM.Collect$$_printf_percent$$00000004  0x40000098   Section        8  _printf_e.o(.ARM.Collect$$_printf_percent$$00000004)
    .ARM.Collect$$_printf_percent$$00000005  0x400000a0   Section        8  _printf_g.o(.ARM.Collect$$_printf_percent$$00000005)
    .ARM.Collect$$_printf_percent$$00000006  0x400000a8   Section        8  _printf_a.o(.ARM.Collect$$_printf_percent$$00000006)
    .ARM.Collect$$_printf_percent$$00000007  0x400000b0   Section       12  _printf_ll.o(.ARM.Collect$$_printf_percent$$00000007)
    .ARM.Collect$$_printf_percent$$00000008  0x400000bc   Section        8  _printf_i.o(.ARM.Collect$$_printf_percent$$00000008)
    .ARM.Collect$$_printf_percent$$00000009  0x400000c4   Section        8  _printf_d.o(.ARM.Collect$$_printf_percent$$00000009)
    .ARM.Collect$$_printf_percent$$0000000A  0x400000cc   Section        8  _printf_u.o(.ARM.Collect$$_printf_percent$$0000000A)
    .ARM.Collect$$_printf_percent$$0000000B  0x400000d4   Section        8  _printf_o.o(.ARM.Collect$$_printf_percent$$0000000B)
    .ARM.Collect$$_printf_percent$$0000000C  0x400000dc   Section        8  _printf_x.o(.ARM.Collect$$_printf_percent$$0000000C)
    .ARM.Collect$$_printf_percent$$0000000D  0x400000e4   Section        8  _printf_lli.o(.ARM.Collect$$_printf_percent$$0000000D)
    .ARM.Collect$$_printf_percent$$0000000E  0x400000ec   Section        8  _printf_lld.o(.ARM.Collect$$_printf_percent$$0000000E)
    .ARM.Collect$$_printf_percent$$0000000F  0x400000f4   Section        8  _printf_llu.o(.ARM.Collect$$_printf_percent$$0000000F)
    .ARM.Collect$$_printf_percent$$00000010  0x400000fc   Section        8  _printf_llo.o(.ARM.Collect$$_printf_percent$$00000010)
    .ARM.Collect$$_printf_percent$$00000011  0x40000104   Section        8  _printf_llx.o(.ARM.Collect$$_printf_percent$$00000011)
    .ARM.Collect$$_printf_percent$$00000012  0x4000010c   Section       12  _printf_l.o(.ARM.Collect$$_printf_percent$$00000012)
    .ARM.Collect$$_printf_percent$$00000013  0x40000118   Section        8  _printf_c.o(.ARM.Collect$$_printf_percent$$00000013)
    .ARM.Collect$$_printf_percent$$00000014  0x40000120   Section        8  _printf_s.o(.ARM.Collect$$_printf_percent$$00000014)
    .ARM.Collect$$_printf_percent$$00000015  0x40000128   Section        8  _printf_lc.o(.ARM.Collect$$_printf_percent$$00000015)
    .ARM.Collect$$_printf_percent$$00000016  0x40000130   Section        8  _printf_ls.o(.ARM.Collect$$_printf_percent$$00000016)
    .ARM.Collect$$_printf_percent$$00000017  0x40000138   Section        8  _printf_percent_end.o(.ARM.Collect$$_printf_percent$$00000017)
    .ARM.Collect$$libinit$$00000013          0x40000140   Section        0  libinit2.o(.ARM.Collect$$libinit$$00000013)
    .ARM.Collect$$libinit$$00000017          0x40000140   Section        0  libinit2.o(.ARM.Collect$$libinit$$00000017)
    .text                                    0x40000140   Section        0  atel_bg96_app.o(.text)
    location_capabilities_callback           0x40000140   ARM Code      12  atel_bg96_app.o(.text)
    location_response_callback               0x4000014c   ARM Code      64  atel_bg96_app.o(.text)
    location_geofence_response_callback      0x4000018c   ARM Code       8  atel_bg96_app.o(.text)
    location_tracking_callback               0x400005b8   ARM Code     276  atel_bg96_app.o(.text)
    .text                                    0x4000155c   Section        0  atel_gpio.o(.text)
    .text                                    0x40001924   Section        0  atel_tcpclient.o(.text)
    tcp_net_event_cb                         0x40001c2c   ARM Code     384  atel_tcpclient.o(.text)
    tcp_set_data_param                       0x40001dac   ARM Code     624  atel_tcpclient.o(.text)
    tcp_netctrl_init                         0x4000201c   ARM Code     508  atel_tcpclient.o(.text)
    start_tcp_session                        0x40002368   ARM Code    1156  atel_tcpclient.o(.text)
    .text                                    0x40002b20   Section        0  quectel_uart_apis.o(.text)
    uart_rx_cb                               0x40002ba8   ARM Code      84  quectel_uart_apis.o(.text)
    .text                                    0x40002e78   Section        0  quectel_utils.o(.text)
    .text                                    0x40002f0c   Section        0  txm_module_thread_shell_entry.o(.text)
    .text                                    0x40002f84   Section        0  txm_module_callback_request_thread_entry.o(.text)
    __switch$$                               0x40002fcc   ARM Code       0  txm_module_callback_request_thread_entry.o(.text)
    .text                                    0x400030bc   Section        0  txm_module_system_call11.o(.text)
    .text                                    0x40003124   Section        0  txm_module_system_call12.o(.text)
    .text                                    0x40003194   Section        0  txm_module_system_call4.o(.text)
    .text                                    0x400031c4   Section        0  txm_module_system_call5.o(.text)
    .text                                    0x400031fc   Section        0  qapi_timer_user.o(.text)
    .text                                    0x400035e0   Section      752  lludiv5.o(.text)
    .text                                    0x400038d0   Section        0  c89vsnprintf.o(.text)
    .text                                    0x40003930   Section        0  __2sprintf.o(.text)
    .text                                    0x40003974   Section        0  __2snprintf.o(.text)
    .text                                    0x400039d0   Section        0  _printf_dec.o(.text)
    .text                                    0x40003a84   Section        0  __printf_flags_ss_wp.o(.text)
    .text                                    0x40003d0c   Section        0  locale.o(.text)
    .text                                    0x40003d20   Section        0  strlcpy.o(.text)
    .text                                    0x40003df4   Section        0  strcpy.o(.text)
    .text                                    0x40003e60   Section        0  strlen.o(.text)
    .text                                    0x40003ec4   Section        0  strncmp.o(.text)
    .text                                    0x40003fa4   Section      100  rt_memcpy_w.o(.text)
    .text                                    0x40004008   Section       64  rt_memclr.o(.text)
    .text                                    0x40004048   Section       84  rt_memclr_w.o(.text)
    .text                                    0x4000409c   Section        0  _printf_pad.o(.text)
    .text                                    0x40004138   Section        0  _printf_truncate.o(.text)
    .text                                    0x4000417c   Section        0  _printf_str.o(.text)
    .text                                    0x4000420c   Section        0  _printf_intcommon.o(.text)
    .text                                    0x40004334   Section        0  _printf_charcount.o(.text)
    .text                                    0x40004374   Section        0  _printf_char_common.o(.text)
    _printf_input_char                       0x40004374   ARM Code      20  _printf_char_common.o(.text)
    .text                                    0x400043c8   Section        0  _sputc.o(.text)
    .text                                    0x400043d8   Section        0  _snputc.o(.text)
    .text                                    0x400043f0   Section        0  _printf_wctomb.o(.text)
    .text                                    0x4000452c   Section        0  _printf_longlong_dec.o(.text)
    .text                                    0x400045e0   Section        0  _printf_oct_int_ll.o(.text)
    _printf_longlong_oct_internal            0x400045e0   ARM Code       0  _printf_oct_int_ll.o(.text)
    .text                                    0x4000468c   Section        0  _printf_hex_int_ll_ptr.o(.text)
    _printf_hex_common                       0x4000468c   ARM Code       0  _printf_hex_int_ll_ptr.o(.text)
    .text                                    0x4000477c   Section        0  locale_r.o(.text)
    _locale_name                             0x4000477c   ARM Code     248  locale_r.o(.text)
    _set_locale_byname                       0x4000492c   ARM Code     244  locale_r.o(.text)
    .text                                    0x40004a38   Section       44  rtudiv10.o(.text)
    .text                                    0x40004a64   Section       12  rt_locale.o(.text)
    .text                                    0x40004a70   Section      152  lludiv10.o(.text)
    .text                                    0x40004b08   Section        0  _printf_fp_dec.o(.text)
    _fp_digits                               0x40004b0c   ARM Code     632  _printf_fp_dec.o(.text)
    .text                                    0x40005134   Section        0  _printf_char.o(.text)
    .text                                    0x40005180   Section        0  _printf_wchar.o(.text)
    .text                                    0x400051cc   Section        0  _wcrtomb.o(.text)
    .text                                    0x40005230   Section       20  rt_ctype_table.o(.text)
    .text                                    0x40005244   Section        0  _printf_fp_infnan.o(.text)
    .text                                    0x40005320   Section        0  bigflt0.o(.text)
    .text                                    0x4000544c   Section      284  strcmpv7.o(.text)
    CL$$btod_d2e                             0x40005568   Section       56  btod.o(CL$$btod_d2e)
    CL$$btod_d2e_denorm_low                  0x400055a0   Section       84  btod.o(CL$$btod_d2e_denorm_low)
    CL$$btod_d2e_norm_op1                    0x400055f4   Section      104  btod.o(CL$$btod_d2e_norm_op1)
    CL$$btod_div_common                      0x4000565c   Section      840  btod.o(CL$$btod_div_common)
    CL$$btod_e2e                             0x400059a4   Section      220  btod.o(CL$$btod_e2e)
    CL$$btod_ediv                            0x40005a80   Section       48  btod.o(CL$$btod_ediv)
    CL$$btod_emul                            0x40005ab0   Section       48  btod.o(CL$$btod_emul)
    CL$$btod_mult_common                     0x40005ae0   Section      612  btod.o(CL$$btod_mult_common)
    i.__ARM_fpclassify                       0x40005d44   Section        0  fpclassify.o(i.__ARM_fpclassify)
    locale$$code                             0x40005d84   Section       68  lc_numeric_c.o(locale$$code)
    locale$$code                             0x40005dc8   Section       68  lc_ctype_c.o(locale$$code)
    x$fpl$dfix                               0x40005e0c   Section       16  dfix.o(x$fpl$dfix)
    $v0                                      0x40005e0c   Number         0  dfix.o(x$fpl$dfix)
    x$fpl$dmul                               0x40005e1c   Section       20  dmul.o(x$fpl$dmul)
    $v0                                      0x40005e1c   Number         0  dmul.o(x$fpl$dmul)
    x$fpl$ffix                               0x40005e30   Section       16  ffix.o(x$fpl$ffix)
    $v0                                      0x40005e30   Number         0  ffix.o(x$fpl$ffix)
    x$fpl$fmul                               0x40005e40   Section       20  fmul.o(x$fpl$fmul)
    $v0                                      0x40005e40   Number         0  fmul.o(x$fpl$fmul)
    x$fpl$printf1                            0x40005e54   Section        4  printf1.o(x$fpl$printf1)
    $v0                                      0x40005e54   Number         0  printf1.o(x$fpl$printf1)
    x$fpl$usenofp                            0x40005e58   Section        0  usenofp.o(x$fpl$usenofp)
    x$sdivmod                                0x40005e58   Section       16  aeabi_sdiv_v7de_otime.o(x$sdivmod)
    .constdata                               0x40005e68   Section       12  atel_bg96_app.o(.constdata)
    .constdata                               0x40005e74   Section       32  quectel_utils.o(.constdata)
    xx_msg_const                             0x40005e74   Data          16  quectel_utils.o(.constdata)
    xx_msg_const                             0x40005e84   Data          16  quectel_utils.o(.constdata)
    .constdata                               0x40005e94   Section       17  __printf_flags_ss_wp.o(.constdata)
    maptable                                 0x40005e94   Data          17  __printf_flags_ss_wp.o(.constdata)
    .constdata                               0x40005ea8   Section        8  _printf_wctomb.o(.constdata)
    initial_mbstate                          0x40005ea8   Data           8  _printf_wctomb.o(.constdata)
    .constdata                               0x40005eb0   Section       40  _printf_hex_int_ll_ptr.o(.constdata)
    uc_hextab                                0x40005eb0   Data          20  _printf_hex_int_ll_ptr.o(.constdata)
    lc_hextab                                0x40005ec4   Data          20  _printf_hex_int_ll_ptr.o(.constdata)
    .constdata                               0x40005ed8   Section      148  bigflt0.o(.constdata)
    tenpwrs_x                                0x40005ed8   Data          60  bigflt0.o(.constdata)
    tenpwrs_i                                0x40005f14   Data          64  bigflt0.o(.constdata)
    .conststring                             0x40005f6c   Section       27  atel_bg96_app.o(.conststring)
    .conststring                             0x40005f87   Section       98  atel_gpio.o(.conststring)
    .conststring                             0x40005fe9   Section       19  quectel_utils.o(.conststring)
    locale$$data                             0x40005ffc   Section       16  null_locale.o(locale$$data)
    locale$$data                             0x4000600c   Section       28  lc_numeric_c.o(locale$$data)
    __lcnum_c_name                           0x40006010   Data           2  lc_numeric_c.o(locale$$data)
    __lcnum_c_start                          0x40006018   Data           0  lc_numeric_c.o(locale$$data)
    __lcnum_c_point                          0x40006024   Data           0  lc_numeric_c.o(locale$$data)
    __lcnum_c_thousands                      0x40006026   Data           0  lc_numeric_c.o(locale$$data)
    __lcnum_c_grouping                       0x40006027   Data           0  lc_numeric_c.o(locale$$data)
    locale$$data                             0x40006028   Section      272  lc_ctype_c.o(locale$$data)
    __lcnum_c_end                            0x40006028   Data           0  lc_numeric_c.o(locale$$data)
    __lcctype_c_name                         0x4000602c   Data           2  lc_ctype_c.o(locale$$data)
    __lcctype_c_start                        0x40006034   Data           0  lc_ctype_c.o(locale$$data)
    .data                                    0x40006138   Section       76  atel_bg96_app.o(.data)
    __lcctype_c_end                          0x40006138   Data           0  lc_ctype_c.o(locale$$data)
    timer_count                              0x4000613c   Data           4  atel_bg96_app.o(.data)
    gps_tracking_id                          0x40006148   Data           4  atel_bg96_app.o(.data)
    .data                                    0x40006184   Section      224  atel_gpio.o(.data)
    .data                                    0x40006264   Section       12  atel_tcpclient.o(.data)
    dss_thread_handle                        0x4000626c   Data           4  atel_tcpclient.o(.data)
    .data                                    0x40006270   Section       28  quectel_uart_apis.o(.data)
    .data                                    0x4000628c   Section        4  quectel_uart_apis.o(.data)
    .data                                    0x40006290   Section       12  txm_module_thread_shell_entry.o(.data)
    .data                                    0x4000629c   Section        8  qapi_timer_user.o(.data)
    .bss                                     0x400062a8   Section      688  atel_bg96_app.o(.bss)
    loc_trans_buffer                         0x400063a8   Data         256  atel_bg96_app.o(.bss)
    gps_signal_handle                        0x400064d0   Data          36  atel_bg96_app.o(.bss)
    gps_file_handle                          0x400064f4   Data          36  atel_bg96_app.o(.bss)
    .bss                                     0x40006558   Section    32768  atel_bg96_app.o(.bss)
    atel_tcpclient_thread_stack              0x40006558   Data       32768  atel_bg96_app.o(.bss)
    .bss                                     0x4000e558   Section      336  atel_gpio.o(.bss)
    .bss                                     0x4000e6a8   Section    16827  atel_tcpclient.o(.bss)
    tcp_dss_stack                            0x4000e6a8   Data       16384  atel_tcpclient.o(.bss)
    apn                                      0x400126cc   Data         151  atel_tcpclient.o(.bss)
    apn_username                             0x40012763   Data         128  atel_tcpclient.o(.bss)
    apn_passwd                               0x400127e3   Data         128  atel_tcpclient.o(.bss)
    .bss                                     0x40012863   Section     1024  quectel_uart_apis.o(.bss)
    .bss                                     0x40012c63   Section     1024  quectel_uart_apis.o(.bss)
    .bss                                     0x40013063   Section      256  quectel_utils.o(.bss)
    qt_log_buffer                            0x40013063   Data         256  quectel_utils.o(.bss)
    .bss                                     0x40013163   Section       42  locale.o(.bss)
    mixed_name_buf                           0x40013163   Data          42  locale.o(.bss)
    .bss                                     0x40013190   Section       20  rt_locale.o(.bss)
    __rt_locale_data                         0x40013190   Data          20  rt_locale.o(.bss)

    Global Symbols

    Symbol Name                              Value     Ov Type        Size  Object(Section)

    BuildAttributes$$ARM_ISAv7$X$E$P$J$Z$N$DE$K$B$S$VFPv4$PE$MPE$A:L22UL41UL21$X:L11$S22US41US21$IEEE1$IW$~IW$USESV6$~STKCKD$USESV7$~SHL$OTIME$ROPI$IEEEJ$EBA8$STANDARDLIB$REQ8$PRES8$EABIv2 0x00000000   Number         0  anon$$obj.o ABSOLUTE
    _printf_flags                            0x00000000   Number         0  printf_stubs.o ABSOLUTE
    _printf_return_value                     0x00000000   Number         0  printf_stubs.o ABSOLUTE
    _printf_sizespec                         0x00000000   Number         0  printf_stubs.o ABSOLUTE
    _printf_widthprec                        0x00000000   Number         0  printf_stubs.o ABSOLUTE
    __ARM_exceptions_init                     - Undefined Weak Reference
    __alloca_initialize                       - Undefined Weak Reference
    __arm_preinit_                            - Undefined Weak Reference
    __cpp_initialize__aeabi_                  - Undefined Weak Reference
    __sigvec_lookup                           - Undefined Weak Reference
    _atexit_init                              - Undefined Weak Reference
    _clock_init                               - Undefined Weak Reference
    _fp_trap_init                             - Undefined Weak Reference
    _get_lc_collate                           - Undefined Weak Reference
    _get_lc_monetary                          - Undefined Weak Reference
    _get_lc_time                              - Undefined Weak Reference
    _getenv_init                              - Undefined Weak Reference
    _handle_redirection                       - Undefined Weak Reference
    _init_alloc                               - Undefined Weak Reference
    _init_user_alloc                          - Undefined Weak Reference
    _initio                                   - Undefined Weak Reference
    _printf_fp_hex                            - Undefined Weak Reference
    _printf_mbtowc                            - Undefined Weak Reference
    _printf_wc                                - Undefined Weak Reference
    _rand_init                                - Undefined Weak Reference
    _signal_init                              - Undefined Weak Reference
    Image$$ER_RW$$Length                     0x0000016c   Number         0  anon$$obj.o ABSOLUTE
    Image$$ER_RO$$Length                     0x00006138   Number         0  anon$$obj.o ABSOLUTE
    Image$$ER_ZI$$ZI$$Length                 0x0000cefc   Number         0  anon$$obj.o ABSOLUTE
    __txm_module_preamble                    0x40000000   Data           0  txm_module_preamble.o(Init)
    _printf_n                                0x40000080   ARM Code       0  _printf_n.o(.ARM.Collect$$_printf_percent$$00000001)
    _printf_percent                          0x40000080   ARM Code       0  _printf_percent.o(.ARM.Collect$$_printf_percent$$00000000)
    _printf_p                                0x40000088   ARM Code       0  _printf_p.o(.ARM.Collect$$_printf_percent$$00000002)
    _printf_f                                0x40000090   ARM Code       0  _printf_f.o(.ARM.Collect$$_printf_percent$$00000003)
    _printf_e                                0x40000098   ARM Code       0  _printf_e.o(.ARM.Collect$$_printf_percent$$00000004)
    _printf_g                                0x400000a0   ARM Code       0  _printf_g.o(.ARM.Collect$$_printf_percent$$00000005)
    _printf_a                                0x400000a8   ARM Code       0  _printf_a.o(.ARM.Collect$$_printf_percent$$00000006)
    _printf_ll                               0x400000b0   ARM Code       0  _printf_ll.o(.ARM.Collect$$_printf_percent$$00000007)
    _printf_i                                0x400000bc   ARM Code       0  _printf_i.o(.ARM.Collect$$_printf_percent$$00000008)
    _printf_d                                0x400000c4   ARM Code       0  _printf_d.o(.ARM.Collect$$_printf_percent$$00000009)
    _printf_u                                0x400000cc   ARM Code       0  _printf_u.o(.ARM.Collect$$_printf_percent$$0000000A)
    _printf_o                                0x400000d4   ARM Code       0  _printf_o.o(.ARM.Collect$$_printf_percent$$0000000B)
    _printf_x                                0x400000dc   ARM Code       0  _printf_x.o(.ARM.Collect$$_printf_percent$$0000000C)
    _printf_lli                              0x400000e4   ARM Code       0  _printf_lli.o(.ARM.Collect$$_printf_percent$$0000000D)
    _printf_lld                              0x400000ec   ARM Code       0  _printf_lld.o(.ARM.Collect$$_printf_percent$$0000000E)
    _printf_llu                              0x400000f4   ARM Code       0  _printf_llu.o(.ARM.Collect$$_printf_percent$$0000000F)
    _printf_llo                              0x400000fc   ARM Code       0  _printf_llo.o(.ARM.Collect$$_printf_percent$$00000010)
    _printf_llx                              0x40000104   ARM Code       0  _printf_llx.o(.ARM.Collect$$_printf_percent$$00000011)
    _printf_l                                0x4000010c   ARM Code       0  _printf_l.o(.ARM.Collect$$_printf_percent$$00000012)
    _printf_c                                0x40000118   ARM Code       0  _printf_c.o(.ARM.Collect$$_printf_percent$$00000013)
    _printf_s                                0x40000120   ARM Code       0  _printf_s.o(.ARM.Collect$$_printf_percent$$00000014)
    _printf_lc                               0x40000128   ARM Code       0  _printf_lc.o(.ARM.Collect$$_printf_percent$$00000015)
    _printf_ls                               0x40000130   ARM Code       0  _printf_ls.o(.ARM.Collect$$_printf_percent$$00000016)
    _printf_percent_end                      0x40000138   ARM Code       0  _printf_percent_end.o(.ARM.Collect$$_printf_percent$$00000017)
    __rt_lib_init_lc_ctype_2                 0x40000140   ARM Code       0  libinit2.o(.ARM.Collect$$libinit$$00000013)
    __rt_lib_init_lc_numeric_2               0x40000140   ARM Code       0  libinit2.o(.ARM.Collect$$libinit$$00000017)
    loc_info_transform                       0x40000194   ARM Code    1060  atel_bg96_app.o(.text)
    location_init                            0x400006cc   ARM Code     368  atel_bg96_app.o(.text)
    location_deinit                          0x4000083c   ARM Code     164  atel_bg96_app.o(.text)
    location_info_show                       0x400008e0   ARM Code    1124  atel_bg96_app.o(.text)
    gps_cb_timer                             0x40000d44   ARM Code       4  atel_bg96_app.o(.text)
    gps_loc_log_write                        0x40000d48   ARM Code     436  atel_bg96_app.o(.text)
    gps_loc_file_timer_init                  0x40000efc   ARM Code     424  atel_bg96_app.o(.text)
    atel_efs_is_dir_exists                   0x400010a4   ARM Code     120  atel_bg96_app.o(.text)
    gps_loc_log_init                         0x4000111c   ARM Code     272  atel_bg96_app.o(.text)
    quectel_task_entry                       0x4000122c   ARM Code     784  atel_bg96_app.o(.text)
    gpio_config                              0x4000155c   ARM Code     256  atel_gpio.o(.text)
    mm16_lan_power_on                        0x4000165c   ARM Code     112  atel_gpio.o(.text)
    atel_led_on                              0x400016cc   ARM Code     148  atel_gpio.o(.text)
    atel_led_off                             0x40001760   ARM Code     452  atel_gpio.o(.text)
    tcp_inet_ntoa                            0x40001924   ARM Code      84  atel_tcpclient.o(.text)
    tcp_show_sysinfo                         0x40001978   ARM Code     692  atel_tcpclient.o(.text)
    tcp_netctrl_start                        0x40002218   ARM Code     144  atel_tcpclient.o(.text)
    tcp_netctrl_stop                         0x400022a8   ARM Code     104  atel_tcpclient.o(.text)
    quec_dataservice_thread                  0x40002310   ARM Code      88  atel_tcpclient.o(.text)
    atel_tcpclient_start                     0x400027ec   ARM Code     804  atel_tcpclient.o(.text)
    uart_recv                                0x40002b20   ARM Code      64  quectel_uart_apis.o(.text)
    uart_print                               0x40002b60   ARM Code      72  quectel_uart_apis.o(.text)
    uart_init                                0x40002bfc   ARM Code     228  quectel_uart_apis.o(.text)
    qt_uart_dbg                              0x40002ce0   ARM Code     408  quectel_uart_apis.o(.text)
    qt_log_printf                            0x40002e78   ARM Code     132  quectel_utils.o(.text)
    _txm_module_thread_shell_entry           0x40002f0c   ARM Code     116  txm_module_thread_shell_entry.o(.text)
    _txm_module_callback_request_thread_entry 0x40002f84   ARM Code     304  txm_module_callback_request_thread_entry.o(.text)
    _txm_module_system_call11                0x400030bc   ARM Code     100  txm_module_system_call11.o(.text)
    _txm_module_system_call12                0x40003124   ARM Code     108  txm_module_system_call12.o(.text)
    _txm_module_system_call4                 0x40003194   ARM Code      44  txm_module_system_call4.o(.text)
    _txm_module_system_call5                 0x400031c4   ARM Code      52  txm_module_system_call5.o(.text)
    qapi_timer_user_init                     0x400031fc   ARM Code     112  qapi_timer_user.o(.text)
    qapi_Timer_Def                           0x4000326c   ARM Code     256  qapi_timer_user.o(.text)
    qapi_Timer_Set                           0x4000336c   ARM Code      76  qapi_timer_user.o(.text)
    qapi_Timer_Get_Timer_Info                0x400033b8   ARM Code      80  qapi_timer_user.o(.text)
    qapi_Timer_Sleep                         0x40003408   ARM Code      76  qapi_timer_user.o(.text)
    qapi_Timer_Undef                         0x40003454   ARM Code     124  qapi_timer_user.o(.text)
    qapi_Timer_Stop                          0x400034d0   ARM Code      72  qapi_timer_user.o(.text)
    qapi_Timer_set_absolute                  0x40003518   ARM Code      80  qapi_timer_user.o(.text)
    qapi_time_get                            0x40003568   ARM Code      76  qapi_timer_user.o(.text)
    __aeabi_uldivmod                         0x400035e0   ARM Code       0  lludiv5.o(.text)
    _ll_udiv                                 0x400035e0   ARM Code     752  lludiv5.o(.text)
    _ll_udiv_donemoving                      0x400035f4   ARM Code       0  lludiv5.o(.text)
    __c89vsnprintf                           0x400038d0   ARM Code      92  c89vsnprintf.o(.text)
    __2sprintf                               0x40003930   ARM Code      64  __2sprintf.o(.text)
    __2snprintf                              0x40003974   ARM Code      88  __2snprintf.o(.text)
    _printf_int_dec                          0x400039d0   ARM Code     164  _printf_dec.o(.text)
    __printf                                 0x40003a84   ARM Code     644  __printf_flags_ss_wp.o(.text)
    setlocale                                0x40003d0c   ARM Code      16  locale.o(.text)
    strlcpy                                  0x40003d20   ARM Code     208  strlcpy.o(.text)
    strcpy                                   0x40003df4   ARM Code     104  strcpy.o(.text)
    strlen                                   0x40003e60   ARM Code      96  strlen.o(.text)
    strncmp                                  0x40003ec4   ARM Code     220  strncmp.o(.text)
    __aeabi_memcpy4                          0x40003fa4   ARM Code       0  rt_memcpy_w.o(.text)
    __aeabi_memcpy8                          0x40003fa4   ARM Code       0  rt_memcpy_w.o(.text)
    __rt_memcpy_w                            0x40003fa4   ARM Code     100  rt_memcpy_w.o(.text)
    _memcpy_lastbytes_aligned                0x40003ff0   ARM Code       0  rt_memcpy_w.o(.text)
    __aeabi_memclr                           0x40004008   ARM Code       0  rt_memclr.o(.text)
    __rt_memclr                              0x40004008   ARM Code      64  rt_memclr.o(.text)
    _memset                                  0x4000400c   ARM Code       0  rt_memclr.o(.text)
    __aeabi_memclr4                          0x40004048   ARM Code       0  rt_memclr_w.o(.text)
    __aeabi_memclr8                          0x40004048   ARM Code       0  rt_memclr_w.o(.text)
    __rt_memclr_w                            0x40004048   ARM Code      84  rt_memclr_w.o(.text)
    _memset_w                                0x4000404c   ARM Code       0  rt_memclr_w.o(.text)
    _printf_pre_padding                      0x4000409c   ARM Code      84  _printf_pad.o(.text)
    _printf_post_padding                     0x400040f0   ARM Code      72  _printf_pad.o(.text)
    _printf_truncate_signed                  0x40004138   ARM Code      36  _printf_truncate.o(.text)
    _printf_truncate_unsigned                0x4000415c   ARM Code      32  _printf_truncate.o(.text)
    _printf_str                              0x4000417c   ARM Code     144  _printf_str.o(.text)
    _printf_int_common                       0x4000420c   ARM Code     296  _printf_intcommon.o(.text)
    _printf_charcount                        0x40004334   ARM Code      64  _printf_charcount.o(.text)
    _printf_char_common                      0x40004388   ARM Code      60  _printf_char_common.o(.text)
    _sputc                                   0x400043c8   ARM Code      16  _sputc.o(.text)
    _snputc                                  0x400043d8   ARM Code      24  _snputc.o(.text)
    _printf_wctomb                           0x400043f0   ARM Code     312  _printf_wctomb.o(.text)
    _printf_longlong_dec                     0x4000452c   ARM Code     164  _printf_longlong_dec.o(.text)
    _printf_longlong_oct                     0x400045e0   ARM Code     108  _printf_oct_int_ll.o(.text)
    _printf_int_oct                          0x4000464c   ARM Code      40  _printf_oct_int_ll.o(.text)
    _printf_ll_oct                           0x40004674   ARM Code      16  _printf_oct_int_ll.o(.text)
    _printf_longlong_hex                     0x4000468c   ARM Code     136  _printf_hex_int_ll_ptr.o(.text)
    _printf_int_hex                          0x40004714   ARM Code      48  _printf_hex_int_ll_ptr.o(.text)
    _printf_ll_hex                           0x40004744   ARM Code      16  _printf_hex_int_ll_ptr.o(.text)
    _printf_hex_ptr                          0x40004754   ARM Code      32  _printf_hex_int_ll_ptr.o(.text)
    _setlocale_r                             0x40004874   ARM Code     184  locale_r.o(.text)
    __rt_udiv10                              0x40004a38   ARM Code      44  rtudiv10.o(.text)
    __rt_locale                              0x40004a64   ARM Code      12  rt_locale.o(.text)
    _ll_udiv10                               0x40004a70   ARM Code     152  lludiv10.o(.text)
    __lib_sel_fp_printf                      0x40004b08   ARM Code       4  _printf_fp_dec.o(.text)
    _printf_fp_dec_real                      0x40004d84   ARM Code     940  _printf_fp_dec.o(.text)
    _printf_cs_common                        0x40005134   ARM Code      36  _printf_char.o(.text)
    _printf_char                             0x40005158   ARM Code      28  _printf_char.o(.text)
    _printf_string                           0x40005174   ARM Code      12  _printf_char.o(.text)
    _printf_lcs_common                       0x40005180   ARM Code      36  _printf_wchar.o(.text)
    _printf_wchar                            0x400051a4   ARM Code      28  _printf_wchar.o(.text)
    _printf_wstring                          0x400051c0   ARM Code      12  _printf_wchar.o(.text)
    _wcrtomb                                 0x400051cc   ARM Code     100  _wcrtomb.o(.text)
    __rt_ctype_table                         0x40005230   ARM Code      20  rt_ctype_table.o(.text)
    _printf_fp_infnan                        0x40005244   ARM Code     204  _printf_fp_infnan.o(.text)
    _btod_etento                             0x40005320   ARM Code     288  bigflt0.o(.text)
    strcmp                                   0x4000544c   ARM Code     284  strcmpv7.o(.text)
    _btod_d2e                                0x40005568   ARM Code      56  btod.o(CL$$btod_d2e)
    _d2e_denorm_low                          0x400055a0   ARM Code      84  btod.o(CL$$btod_d2e_denorm_low)
    _d2e_norm_op1                            0x400055f4   ARM Code     104  btod.o(CL$$btod_d2e_norm_op1)
    __btod_div_common                        0x4000565c   ARM Code     712  btod.o(CL$$btod_div_common)
    _e2e                                     0x400059a4   ARM Code     220  btod.o(CL$$btod_e2e)
    _btod_ediv                               0x40005a80   ARM Code      48  btod.o(CL$$btod_ediv)
    _btod_emul                               0x40005ab0   ARM Code      48  btod.o(CL$$btod_emul)
    __btod_mult_common                       0x40005ae0   ARM Code     612  btod.o(CL$$btod_mult_common)
    __ARM_fpclassify                         0x40005d44   ARM Code      60  fpclassify.o(i.__ARM_fpclassify)
    _get_lc_numeric                          0x40005d84   ARM Code      68  lc_numeric_c.o(locale$$code)
    _get_lc_ctype                            0x40005dc8   ARM Code      68  lc_ctype_c.o(locale$$code)
    __aeabi_d2iz                             0x40005e0c   ARM Code       0  dfix.o(x$fpl$dfix)
    _dfix                                    0x40005e0c   ARM Code      16  dfix.o(x$fpl$dfix)
    __aeabi_dmul                             0x40005e1c   ARM Code       0  dmul.o(x$fpl$dmul)
    _dmul                                    0x40005e1c   ARM Code      20  dmul.o(x$fpl$dmul)
    __aeabi_f2iz                             0x40005e30   ARM Code       0  ffix.o(x$fpl$ffix)
    _ffix                                    0x40005e30   ARM Code      16  ffix.o(x$fpl$ffix)
    __aeabi_fmul                             0x40005e40   ARM Code       0  fmul.o(x$fpl$fmul)
    _fmul                                    0x40005e40   ARM Code      20  fmul.o(x$fpl$fmul)
    _printf_fp_dec                           0x40005e54   ARM Code       4  printf1.o(x$fpl$printf1)
    __I$use$fp                               0x40005e58   Number         0  usenofp.o(x$fpl$usenofp)
    __aeabi_idivmod                          0x40005e58   ARM Code      16  aeabi_sdiv_v7de_otime.o(x$sdivmod)
    __lcnull_start                           0x40006008   Data           4  null_locale.o(locale$$data)
    __ctype                                  0x40006035   Data           0  lc_ctype_c.o(locale$$data)
    g_gpio_pin_num                           0x40006138   Data           1  atel_bg96_app.o(.data)
    g_atel_sockfd                            0x40006140   Data           4  atel_bg96_app.o(.data)
    timer_handle                             0x40006144   Data           4  atel_bg96_app.o(.data)
    loc_clientid                             0x4000614c   Data           4  atel_bg96_app.o(.data)
    tcpclient_task_config                    0x40006150   Data          24  atel_bg96_app.o(.data)
    location_callbacks                       0x40006168   Data          28  atel_bg96_app.o(.data)
    gpio_map_tbl                             0x40006184   Data         224  atel_gpio.o(.data)
    tcp_netctl_lib_status                    0x40006264   Data           1  atel_tcpclient.o(.data)
    tcp_datacall_status                      0x40006265   Data           1  atel_tcpclient.o(.data)
    tcp_dss_handle                           0x40006268   Data           4  atel_tcpclient.o(.data)
    uart_conf                                0x40006270   Data          28  quectel_uart_apis.o(.data)
    uart1_conf                               0x4000628c   Data           4  quectel_uart_apis.o(.data)
    _txm_module_entry_info                   0x40006290   Data           4  txm_module_thread_shell_entry.o(.data)
    _txm_module_instance_ptr                 0x40006294   Data           4  txm_module_thread_shell_entry.o(.data)
    _txm_module_kernel_call_dispatcher       0x40006298   Data           4  txm_module_thread_shell_entry.o(.data)
    timer_type_size                          0x4000629c   Data           4  qapi_timer_user.o(.data)
    qapi_timer_user_initialized              0x400062a0   Data           4  qapi_timer_user.o(.data)
    tcp_send_buffer                          0x400062a8   Data         256  atel_bg96_app.o(.bss)
    timer_def_attr                           0x400064a8   Data          16  atel_bg96_app.o(.bss)
    timer_set_attr                           0x400064b8   Data          24  atel_bg96_app.o(.bss)
    location                                 0x40006518   Data          64  atel_bg96_app.o(.bss)
    gpio_id_tbl                              0x4000e558   Data          56  atel_gpio.o(.bss)
    tlmm_config                              0x4000e590   Data         280  atel_gpio.o(.bss)
    tcp_signal_handle                        0x400126a8   Data          36  atel_tcpclient.o(.bss)
    rx_buff                                  0x40012863   Data        1024  quectel_uart_apis.o(.bss)
    tx_buff                                  0x40012c63   Data        1024  quectel_uart_apis.o(.bss)



==============================================================================

Memory Map of the image

  Image Entry point : 0x40002f0c

  Load Region LR_1 (Base: 0x40000000, Size: 0x000062a4, Max: 0xffffffff, ABSOLUTE)

    Execution Region ER_RO (Base: 0x40000000, Size: 0x00006138, Max: 0xffffffff, ABSOLUTE)

    Base Addr    Size         Type   Attr      Idx    E Section Name        Object

    0x40000000   0x00000080   Code   RO          323    Init                txm_module_preamble.o
    0x40000080   0x00000000   Code   RO          588    .ARM.Collect$$_printf_percent$$00000000  c_4.l(_printf_percent.o)
    0x40000080   0x00000008   Code   RO          720    .ARM.Collect$$_printf_percent$$00000001  c_4.l(_printf_n.o)
    0x40000088   0x00000008   Code   RO          722    .ARM.Collect$$_printf_percent$$00000002  c_4.l(_printf_p.o)
    0x40000090   0x00000008   Code   RO          726    .ARM.Collect$$_printf_percent$$00000003  c_4.l(_printf_f.o)
    0x40000098   0x00000008   Code   RO          727    .ARM.Collect$$_printf_percent$$00000004  c_4.l(_printf_e.o)
    0x400000a0   0x00000008   Code   RO          728    .ARM.Collect$$_printf_percent$$00000005  c_4.l(_printf_g.o)
    0x400000a8   0x00000008   Code   RO          729    .ARM.Collect$$_printf_percent$$00000006  c_4.l(_printf_a.o)
    0x400000b0   0x0000000c   Code   RO          734    .ARM.Collect$$_printf_percent$$00000007  c_4.l(_printf_ll.o)
    0x400000bc   0x00000008   Code   RO          724    .ARM.Collect$$_printf_percent$$00000008  c_4.l(_printf_i.o)
    0x400000c4   0x00000008   Code   RO          587    .ARM.Collect$$_printf_percent$$00000009  c_4.l(_printf_d.o)
    0x400000cc   0x00000008   Code   RO          725    .ARM.Collect$$_printf_percent$$0000000A  c_4.l(_printf_u.o)
    0x400000d4   0x00000008   Code   RO          723    .ARM.Collect$$_printf_percent$$0000000B  c_4.l(_printf_o.o)
    0x400000dc   0x00000008   Code   RO          721    .ARM.Collect$$_printf_percent$$0000000C  c_4.l(_printf_x.o)
    0x400000e4   0x00000008   Code   RO          731    .ARM.Collect$$_printf_percent$$0000000D  c_4.l(_printf_lli.o)
    0x400000ec   0x00000008   Code   RO          732    .ARM.Collect$$_printf_percent$$0000000E  c_4.l(_printf_lld.o)
    0x400000f4   0x00000008   Code   RO          733    .ARM.Collect$$_printf_percent$$0000000F  c_4.l(_printf_llu.o)
    0x400000fc   0x00000008   Code   RO          738    .ARM.Collect$$_printf_percent$$00000010  c_4.l(_printf_llo.o)
    0x40000104   0x00000008   Code   RO          739    .ARM.Collect$$_printf_percent$$00000011  c_4.l(_printf_llx.o)
    0x4000010c   0x0000000c   Code   RO          735    .ARM.Collect$$_printf_percent$$00000012  c_4.l(_printf_l.o)
    0x40000118   0x00000008   Code   RO          718    .ARM.Collect$$_printf_percent$$00000013  c_4.l(_printf_c.o)
    0x40000120   0x00000008   Code   RO          719    .ARM.Collect$$_printf_percent$$00000014  c_4.l(_printf_s.o)
    0x40000128   0x00000008   Code   RO          736    .ARM.Collect$$_printf_percent$$00000015  c_4.l(_printf_lc.o)
    0x40000130   0x00000008   Code   RO          737    .ARM.Collect$$_printf_percent$$00000016  c_4.l(_printf_ls.o)
    0x40000138   0x00000008   Code   RO          730    .ARM.Collect$$_printf_percent$$00000017  c_4.l(_printf_percent_end.o)
    0x40000140   0x00000000   Code   RO          836    .ARM.Collect$$libinit$$00000013  c_4.l(libinit2.o)
    0x40000140   0x00000000   Code   RO          840    .ARM.Collect$$libinit$$00000017  c_4.l(libinit2.o)
    0x40000140   0x0000141c   Code   RO            1    .text               atel_bg96_app.o
    0x4000155c   0x000003c8   Code   RO          124    .text               atel_gpio.o
    0x40001924   0x000011fc   Code   RO          160    .text               atel_tcpclient.o
    0x40002b20   0x00000358   Code   RO          267    .text               quectel_uart_apis.o
    0x40002e78   0x00000094   Code   RO          307    .text               quectel_utils.o
    0x40002f0c   0x00000078   Code   RO          327  * .text               txm_lib.lib(txm_module_thread_shell_entry.o)
    0x40002f84   0x00000138   Code   RO          436    .text               txm_lib.lib(txm_module_callback_request_thread_entry.o)
    0x400030bc   0x00000068   Code   RO          454    .text               txm_lib.lib(txm_module_system_call11.o)
    0x40003124   0x00000070   Code   RO          469    .text               txm_lib.lib(txm_module_system_call12.o)
    0x40003194   0x00000030   Code   RO          481    .text               txm_lib.lib(txm_module_system_call4.o)
    0x400031c4   0x00000038   Code   RO          493    .text               txm_lib.lib(txm_module_system_call5.o)
    0x400031fc   0x000003e4   Code   RO          505    .text               timer_dam_lib.lib(qapi_timer_user.o)
    0x400035e0   0x000002f0   Code   RO          553    .text               c_4.l(lludiv5.o)
    0x400038d0   0x00000060   Code   RO          555    .text               c_4.l(c89vsnprintf.o)
    0x40003930   0x00000044   Code   RO          557    .text               c_4.l(__2sprintf.o)
    0x40003974   0x0000005c   Code   RO          559    .text               c_4.l(__2snprintf.o)
    0x400039d0   0x000000b4   Code   RO          567    .text               c_4.l(_printf_dec.o)
    0x40003a84   0x00000288   Code   RO          584    .text               c_4.l(__printf_flags_ss_wp.o)
    0x40003d0c   0x00000014   Code   RO          589    .text               c_4.l(locale.o)
    0x40003d20   0x000000d4   Code   RO          592    .text               c_4.l(strlcpy.o)
    0x40003df4   0x0000006c   Code   RO          594    .text               c_4.l(strcpy.o)
    0x40003e60   0x00000064   Code   RO          596    .text               c_4.l(strlen.o)
    0x40003ec4   0x000000e0   Code   RO          598    .text               c_4.l(strncmp.o)
    0x40003fa4   0x00000064   Code   RO          600    .text               c_4.l(rt_memcpy_w.o)
    0x40004008   0x00000040   Code   RO          602    .text               c_4.l(rt_memclr.o)
    0x40004048   0x00000054   Code   RO          604    .text               c_4.l(rt_memclr_w.o)
    0x4000409c   0x0000009c   Code   RO          670    .text               c_4.l(_printf_pad.o)
    0x40004138   0x00000044   Code   RO          672    .text               c_4.l(_printf_truncate.o)
    0x4000417c   0x00000090   Code   RO          674    .text               c_4.l(_printf_str.o)
    0x4000420c   0x00000128   Code   RO          676    .text               c_4.l(_printf_intcommon.o)
    0x40004334   0x00000040   Code   RO          678    .text               c_4.l(_printf_charcount.o)
    0x40004374   0x00000054   Code   RO          680    .text               c_4.l(_printf_char_common.o)
    0x400043c8   0x00000010   Code   RO          682    .text               c_4.l(_sputc.o)
    0x400043d8   0x00000018   Code   RO          684    .text               c_4.l(_snputc.o)
    0x400043f0   0x0000013c   Code   RO          686    .text               c_4.l(_printf_wctomb.o)
    0x4000452c   0x000000b4   Code   RO          689    .text               c_4.l(_printf_longlong_dec.o)
    0x400045e0   0x000000ac   Code   RO          695    .text               c_4.l(_printf_oct_int_ll.o)
    0x4000468c   0x000000f0   Code   RO          715    .text               c_4.l(_printf_hex_int_ll_ptr.o)
    0x4000477c   0x000002bc   Code   RO          740    .text               c_4.l(locale_r.o)
    0x40004a38   0x0000002c   Code   RO          742    .text               c_4.l(rtudiv10.o)
    0x40004a64   0x0000000c   Code   RO          749    .text               c_4.l(rt_locale.o)
    0x40004a70   0x00000098   Code   RO          754    .text               c_4.l(lludiv10.o)
    0x40004b08   0x0000062c   Code   RO          756    .text               c_4.l(_printf_fp_dec.o)
    0x40005134   0x0000004c   Code   RO          760    .text               c_4.l(_printf_char.o)
    0x40005180   0x0000004c   Code   RO          762    .text               c_4.l(_printf_wchar.o)
    0x400051cc   0x00000064   Code   RO          764    .text               c_4.l(_wcrtomb.o)
    0x40005230   0x00000014   Code   RO          770    .text               c_4.l(rt_ctype_table.o)
    0x40005244   0x000000dc   Code   RO          772    .text               c_4.l(_printf_fp_infnan.o)
    0x40005320   0x0000012c   Code   RO          774    .text               c_4.l(bigflt0.o)
    0x4000544c   0x0000011c   Code   RO          819    .text               c_4.l(strcmpv7.o)
    0x40005568   0x00000038   Code   RO          777    CL$$btod_d2e        c_4.l(btod.o)
    0x400055a0   0x00000054   Code   RO          779    CL$$btod_d2e_denorm_low  c_4.l(btod.o)
    0x400055f4   0x00000068   Code   RO          778    CL$$btod_d2e_norm_op1  c_4.l(btod.o)
    0x4000565c   0x00000348   Code   RO          787    CL$$btod_div_common  c_4.l(btod.o)
    0x400059a4   0x000000dc   Code   RO          784    CL$$btod_e2e        c_4.l(btod.o)
    0x40005a80   0x00000030   Code   RO          781    CL$$btod_ediv       c_4.l(btod.o)
    0x40005ab0   0x00000030   Code   RO          780    CL$$btod_emul       c_4.l(btod.o)
    0x40005ae0   0x00000264   Code   RO          786    CL$$btod_mult_common  c_4.l(btod.o)
    0x40005d44   0x00000040   Code   RO          808    i.__ARM_fpclassify  m_4v.l(fpclassify.o)
    0x40005d84   0x00000044   Code   RO          800    locale$$code        c_4.l(lc_numeric_c.o)
    0x40005dc8   0x00000044   Code   RO          813    locale$$code        c_4.l(lc_ctype_c.o)
    0x40005e0c   0x00000010   Code   RO          650    x$fpl$dfix          fz_4v.l(dfix.o)
    0x40005e1c   0x00000014   Code   RO          654    x$fpl$dmul          fz_4v.l(dmul.o)
    0x40005e30   0x00000010   Code   RO          656    x$fpl$ffix          fz_4v.l(ffix.o)
    0x40005e40   0x00000014   Code   RO          660    x$fpl$fmul          fz_4v.l(fmul.o)
    0x40005e54   0x00000004   Code   RO          744    x$fpl$printf1       fz_4v.l(printf1.o)
    0x40005e58   0x00000000   Code   RO          746    x$fpl$usenofp       fz_4v.l(usenofp.o)
    0x40005e58   0x00000010   Code   RO          608    x$sdivmod           c_4.l(aeabi_sdiv_v7de_otime.o)
    0x40005e68   0x0000000c   Data   RO            4    .constdata          atel_bg96_app.o
    0x40005e74   0x00000020   Data   RO          309    .constdata          quectel_utils.o
    0x40005e94   0x00000011   Data   RO          585    .constdata          c_4.l(__printf_flags_ss_wp.o)
    0x40005ea5   0x00000003   PAD
    0x40005ea8   0x00000008   Data   RO          687    .constdata          c_4.l(_printf_wctomb.o)
    0x40005eb0   0x00000028   Data   RO          716    .constdata          c_4.l(_printf_hex_int_ll_ptr.o)
    0x40005ed8   0x00000094   Data   RO          775    .constdata          c_4.l(bigflt0.o)
    0x40005f6c   0x0000001b   Data   RO            5    .conststring        atel_bg96_app.o
    0x40005f87   0x00000062   Data   RO          126    .conststring        atel_gpio.o
    0x40005fe9   0x00000013   Data   RO          310    .conststring        quectel_utils.o
    0x40005ffc   0x00000010   Data   RO          766    locale$$data        c_4.l(null_locale.o)
    0x4000600c   0x0000001c   Data   RO          799    locale$$data        c_4.l(lc_numeric_c.o)
    0x40006028   0x00000110   Data   RO          812    locale$$data        c_4.l(lc_ctype_c.o)


    Execution Region ER_RW (Base: 0x40006138, Size: 0x0000016c, Max: 0xffffffff, ABSOLUTE)

    Base Addr    Size         Type   Attr      Idx    E Section Name        Object

    0x40006138   0x0000004c   Data   RW            6    .data               atel_bg96_app.o
    0x40006184   0x000000e0   Data   RW          127    .data               atel_gpio.o
    0x40006264   0x0000000c   Data   RW          162    .data               atel_tcpclient.o
    0x40006270   0x0000001c   Data   RW          270    .data               quectel_uart_apis.o
    0x4000628c   0x00000004   Data   RW          271    .data               quectel_uart_apis.o
    0x40006290   0x0000000c   Data   RW          329    .data               txm_lib.lib(txm_module_thread_shell_entry.o)
    0x4000629c   0x00000008   Data   RW          506    .data               timer_dam_lib.lib(qapi_timer_user.o)


    Execution Region ER_ZI (Base: 0x400062a4, Size: 0x0000cf00, Max: 0xffffffff, ABSOLUTE)

    Base Addr    Size         Type   Attr      Idx    E Section Name        Object

    0x400062a4   0x00000004   PAD
    0x400062a8   0x000002b0   Zero   RW            2    .bss                atel_bg96_app.o
    0x40006558   0x00008000   Zero   RW            3    .bss                atel_bg96_app.o
    0x4000e558   0x00000150   Zero   RW          125    .bss                atel_gpio.o
    0x4000e6a8   0x000041bb   Zero   RW          161    .bss                atel_tcpclient.o
    0x40012863   0x00000400   Zero   RW          268    .bss                quectel_uart_apis.o
    0x40012c63   0x00000400   Zero   RW          269    .bss                quectel_uart_apis.o
    0x40013063   0x00000100   Zero   RW          308    .bss                quectel_utils.o
    0x40013163   0x0000002a   Zero   RW          590    .bss                c_4.l(locale.o)
    0x4001318d   0x00000003   PAD
    0x40013190   0x00000014   Zero   RW          750    .bss                c_4.l(rt_locale.o)

